; Function Attrs: mustprogress uwtable
define dso_local noundef i64 @_ZNK4onnx16TypeProto_Tensor12ByteSizeLongEv(ptr noundef nonnull align 8 dereferenceable(40) %0) unnamed_addr #3 align 2 {
  %2 = getelementptr inbounds nuw i8, ptr %0, i64 16
  %3 = load i32, ptr %2, align 8, !tbaa !50
  %4 = and i32 %3, 3
  %.not = icmp eq i32 %4, 0
  br i1 %.not, label %36, label %5

5:                                                ; preds = %1
  %6 = and i32 %3, 1
  %.not11 = icmp eq i32 %6, 0
  br i1 %.not11, label %21, label %7

7:                                                ; preds = %5
  %8 = getelementptr inbounds nuw i8, ptr %0, i64 24
  %9 = load ptr, ptr %8, align 8, !tbaa !58
  %10 = tail call noundef i64 @_ZNK4onnx16TensorShapeProto12ByteSizeLongEv(ptr noundef nonnull align 8 dereferenceable(48) %9)
  %11 = trunc i64 %10 to i32
  %12 = or i32 %11, 1
  %13 = tail call range(i32 0, 33) i32 @llvm.ctlz.i32(i32 %12, i1 true)
  %14 = xor i32 %13, 31
  %15 = mul nuw nsw i32 %14, 9
  %16 = add nuw nsw i32 %15, 73
  %17 = lshr i32 %16, 6
  %18 = zext nneg i32 %17 to i64
  %19 = add i64 %10, 1
  %20 = add i64 %19, %18
  br label %21

21:                                               ; preds = %7, %5
  %.1 = phi i64 [ %20, %7 ], [ 0, %5 ]
  %22 = and i32 %3, 2
  %.not12 = icmp eq i32 %22, 0
  br i1 %.not12, label %36, label %23

23:                                               ; preds = %21
  %24 = getelementptr inbounds nuw i8, ptr %0, i64 32
  %25 = load i32, ptr %24, align 8, !tbaa !267
  %26 = icmp slt i32 %25, 0
  br i1 %26, label %_ZN6google8protobuf8internal14WireFormatLite9Int32SizeEi.exit, label %27

27:                                               ; preds = %23
  %28 = or i32 %25, 1
  %29 = tail call range(i32 0, 33) i32 @llvm.ctlz.i32(i32 %28, i1 true)
  %30 = xor i32 %29, 31
  %31 = mul nuw nsw i32 %30, 9
  %32 = add nuw nsw i32 %31, 73
  %33 = lshr i32 %32, 6
  %narrow = add nuw nsw i32 %33, 1
  %34 = zext nneg i32 %narrow to i64
  br label %_ZN6google8protobuf8internal14WireFormatLite9Int32SizeEi.exit

_ZN6google8protobuf8internal14WireFormatLite9Int32SizeEi.exit: ; preds = %23, %27
  %.0.i.i = phi i64 [ %34, %27 ], [ 11, %23 ]
  %35 = add i64 %.0.i.i, %.1
  br label %36

36:                                               ; preds = %21, %_ZN6google8protobuf8internal14WireFormatLite9Int32SizeEi.exit, %1
  %.010 = phi i64 [ %35, %_ZN6google8protobuf8internal14WireFormatLite9Int32SizeEi.exit ], [ %.1, %21 ], [ 0, %1 ]
  %37 = getelementptr inbounds nuw i8, ptr %0, i64 8
  %38 = load ptr, ptr %37, align 8, !tbaa !4
  %39 = ptrtoint ptr %38 to i64
  %40 = and i64 %39, 1
  %.not13 = icmp eq i64 %40, 0
  br i1 %.not13, label %44, label %41, !prof !11

41:                                               ; preds = %36
  %42 = getelementptr inbounds nuw i8, ptr %0, i64 20
  %43 = tail call noundef i64 @_ZN6google8protobuf8internal24ComputeUnknownFieldsSizeERKNS1_16InternalMetadataEmPNS1_10CachedSizeE(ptr noundef nonnull align 8 dereferenceable(8) %37, i64 noundef %.010, ptr noundef nonnull %42)
  br label %47

44:                                               ; preds = %36
  %45 = trunc i64 %.010 to i32
  %46 = getelementptr inbounds nuw i8, ptr %0, i64 20
  store atomic i32 %45, ptr %46 monotonic, align 4
  br label %47

47:                                               ; preds = %44, %41
  %.0 = phi i64 [ %43, %41 ], [ %.010, %44 ]
  ret i64 %.0
}